target datalayout = "e-m:e-p270:32:32-p271:32:32-p272:64:64-i64:64-i128:128-f80:128-n8:16:32:64-S128"
target triple = "x86_64-pc-linux-gnu"

%"struct.OpenColorIO_v2_5dev::RenderParams" = type <{ [4 x float], [4 x float], [4 x float], float, i8, i8, [2 x i8] }>
%struct.__loadu_ps = type { <4 x float> }

; Function Attrs: alwaysinline mustprogress nounwind uwtable
define internal noundef <4 x float> @_ZL11_mm_set1_psf(float noundef %0) #11 {
  %2 = alloca float, align 4
  %3 = alloca <4 x float>, align 16
  store float %0, ptr %2, align 4, !tbaa !13
  %4 = load float, ptr %2, align 4, !tbaa !13
  %5 = insertelement <4 x float> poison, float %4, i32 0
  %6 = load float, ptr %2, align 4, !tbaa !13
  %7 = insertelement <4 x float> %5, float %6, i32 1
  %8 = load float, ptr %2, align 4, !tbaa !13
  %9 = insertelement <4 x float> %7, float %8, i32 2
  %10 = load float, ptr %2, align 4, !tbaa !13
  %11 = insertelement <4 x float> %9, float %10, i32 3
  store <4 x float> %11, ptr %3, align 16, !tbaa !61
  %12 = load <4 x float>, ptr %3, align 16, !tbaa !61
  ret <4 x float> %12
}

; Function Attrs: mustprogress nounwind uwtable
define linkonce_odr hidden noundef float @_ZNK19OpenColorIO_v2_5dev12RenderParams13getSaturationEv(ptr noundef nonnull align 4 dereferenceable(54) %0) #5 comdat align 2 {
  %2 = alloca ptr, align 8
  store ptr %0, ptr %2, align 8, !tbaa !3
  %3 = load ptr, ptr %2, align 8
  %4 = getelementptr inbounds nuw %"struct.OpenColorIO_v2_5dev::RenderParams", ptr %3, i32 0, i32 3
  %5 = load float, ptr %4, align 4, !tbaa !14
  ret float %5
}

; Function Attrs: mustprogress nounwind uwtable
define linkonce_odr hidden noundef ptr @_ZNK19OpenColorIO_v2_5dev12RenderParams8getPowerEv(ptr noundef nonnull align 4 dereferenceable(54) %0) #5 comdat align 2 {
  %2 = alloca ptr, align 8
  store ptr %0, ptr %2, align 8, !tbaa !3
  %3 = load ptr, ptr %2, align 8
  %4 = getelementptr inbounds nuw %"struct.OpenColorIO_v2_5dev::RenderParams", ptr %3, i32 0, i32 2
  %5 = getelementptr inbounds [4 x float], ptr %4, i64 0, i64 0
  ret ptr %5
}

; Function Attrs: mustprogress nounwind uwtable
define linkonce_odr hidden noundef ptr @_ZNK19OpenColorIO_v2_5dev12RenderParams9getOffsetEv(ptr noundef nonnull align 4 dereferenceable(54) %0) #5 comdat align 2 {
  %2 = alloca ptr, align 8
  store ptr %0, ptr %2, align 8, !tbaa !3
  %3 = load ptr, ptr %2, align 8
  %4 = getelementptr inbounds nuw %"struct.OpenColorIO_v2_5dev::RenderParams", ptr %3, i32 0, i32 1
  %5 = getelementptr inbounds [4 x float], ptr %4, i64 0, i64 0
  ret ptr %5
}

; Function Attrs: alwaysinline mustprogress nounwind uwtable
define internal noundef <4 x float> @_ZL12_mm_loadu_psPKf(ptr noundef %0) #11 {
  %2 = alloca ptr, align 8
  store ptr %0, ptr %2, align 8, !tbaa !62
  %3 = load ptr, ptr %2, align 8, !tbaa !62
  %4 = getelementptr inbounds nuw %struct.__loadu_ps, ptr %3, i32 0, i32 0
  %5 = load <4 x float>, ptr %4, align 1, !tbaa !61
  ret <4 x float> %5
}

; Function Attrs: mustprogress nounwind uwtable
define linkonce_odr hidden noundef ptr @_ZNK19OpenColorIO_v2_5dev12RenderParams8getSlopeEv(ptr noundef nonnull align 4 dereferenceable(54) %0) #5 comdat align 2 {
  %2 = alloca ptr, align 8
  store ptr %0, ptr %2, align 8, !tbaa !3
  %3 = load ptr, ptr %2, align 8
  %4 = getelementptr inbounds nuw %"struct.OpenColorIO_v2_5dev::RenderParams", ptr %3, i32 0, i32 0
  %5 = getelementptr inbounds [4 x float], ptr %4, i64 0, i64 0
  ret ptr %5
}

; Function Attrs: mustprogress uwtable
define hidden void @_ZN19OpenColorIO_v2_5dev16LoadRenderParamsERKNS_12RenderParamsERDv4_fS4_S4_S4_(ptr noundef nonnull align 4 dereferenceable(54) %0, ptr noundef nonnull align 16 dereferenceable(16) %1, ptr noundef nonnull align 16 dereferenceable(16) %2, ptr noundef nonnull align 16 dereferenceable(16) %3, ptr noundef nonnull align 16 dereferenceable(16) %4) #10 {
  %6 = alloca ptr, align 8
  %7 = alloca ptr, align 8
  %8 = alloca ptr, align 8
  %9 = alloca ptr, align 8
  %10 = alloca ptr, align 8
  store ptr %0, ptr %6, align 8, !tbaa !3
  store ptr %1, ptr %7, align 8, !tbaa !60
  store ptr %2, ptr %8, align 8, !tbaa !60
  store ptr %3, ptr %9, align 8, !tbaa !60
  store ptr %4, ptr %10, align 8, !tbaa !60
  %11 = load ptr, ptr %6, align 8, !tbaa !3
  %12 = call noundef ptr @_ZNK19OpenColorIO_v2_5dev12RenderParams8getSlopeEv(ptr noundef nonnull align 4 dereferenceable(54) %11)
  %13 = call noundef <4 x float> @_ZL12_mm_loadu_psPKf(ptr noundef %12)
  %14 = load ptr, ptr %7, align 8, !tbaa !60
  store <4 x float> %13, ptr %14, align 16, !tbaa !61
  %15 = load ptr, ptr %6, align 8, !tbaa !3
  %16 = call noundef ptr @_ZNK19OpenColorIO_v2_5dev12RenderParams9getOffsetEv(ptr noundef nonnull align 4 dereferenceable(54) %15)
  %17 = call noundef <4 x float> @_ZL12_mm_loadu_psPKf(ptr noundef %16)
  %18 = load ptr, ptr %8, align 8, !tbaa !60
  store <4 x float> %17, ptr %18, align 16, !tbaa !61
  %19 = load ptr, ptr %6, align 8, !tbaa !3
  %20 = call noundef ptr @_ZNK19OpenColorIO_v2_5dev12RenderParams8getPowerEv(ptr noundef nonnull align 4 dereferenceable(54) %19)
  %21 = call noundef <4 x float> @_ZL12_mm_loadu_psPKf(ptr noundef %20)
  %22 = load ptr, ptr %9, align 8, !tbaa !60
  store <4 x float> %21, ptr %22, align 16, !tbaa !61
  %23 = load ptr, ptr %6, align 8, !tbaa !3
  %24 = call noundef float @_ZNK19OpenColorIO_v2_5dev12RenderParams13getSaturationEv(ptr noundef nonnull align 4 dereferenceable(54) %23)
  %25 = call noundef <4 x float> @_ZL11_mm_set1_psf(float noundef %24)
  %26 = load ptr, ptr %10, align 8, !tbaa !60
  store <4 x float> %25, ptr %26, align 16, !tbaa !61
  ret void
}