; Function Attrs: mustprogress nofree norecurse nosync nounwind willreturn memory(argmem: readwrite) uwtable
define hidden void @_ZN19OpenColorIO_v2_5dev16LoadRenderParamsERKNS_12RenderParamsERDv4_fS4_S4_S4_(ptr noundef nonnull readonly align 4 captures(none) dereferenceable(54) %0, ptr noundef nonnull writeonly align 16 captures(none) dereferenceable(16) initializes((0, 16)) %1, ptr noundef nonnull writeonly align 16 captures(none) dereferenceable(16) initializes((0, 16)) %2, ptr noundef nonnull writeonly align 16 captures(none) dereferenceable(16) initializes((0, 16)) %3, ptr noundef nonnull writeonly align 16 captures(none) dereferenceable(16) initializes((0, 16)) %4) local_unnamed_addr #6 {
  %6 = load <4 x float>, ptr %0, align 4, !tbaa !46
  store <4 x float> %6, ptr %1, align 16, !tbaa !46
  %7 = getelementptr inbounds nuw i8, ptr %0, i64 16
  %8 = load <4 x float>, ptr %7, align 4, !tbaa !46
  store <4 x float> %8, ptr %2, align 16, !tbaa !46
  %9 = getelementptr inbounds nuw i8, ptr %0, i64 32
  %10 = load <4 x float>, ptr %9, align 4, !tbaa !46
  store <4 x float> %10, ptr %3, align 16, !tbaa !46
  %11 = getelementptr inbounds nuw i8, ptr %0, i64 48
  %12 = load float, ptr %11, align 4, !tbaa !11
  %13 = insertelement <4 x float> poison, float %12, i64 0
  %14 = shufflevector <4 x float> %13, <4 x float> poison, <4 x i32> zeroinitializer
  store <4 x float> %14, ptr %4, align 16, !tbaa !46
  ret void
}